target datalayout = "e-m:e-p270:32:32-p271:32:32-p272:64:64-i64:64-i128:128-f80:128-n8:16:32:64-S128"
target triple = "x86_64-pc-linux-gnu"

@.str.22 = private unnamed_addr constant [20 x i8] c"dissector not found\00", align 1

; Function Attrs: null_pointer_is_valid sspstrong uwtable
define zeroext i1 @uat_fld_chk_proto(ptr noundef %0, ptr noundef %1, i32 noundef %2, ptr noundef %3, ptr noundef %4, ptr noundef %5) #0 {
  %7 = alloca i1, align 1
  %8 = alloca ptr, align 8
  %9 = alloca ptr, align 8
  %10 = alloca i32, align 4
  %11 = alloca ptr, align 8
  %12 = alloca ptr, align 8
  %13 = alloca ptr, align 8
  %14 = alloca ptr, align 8
  %15 = alloca i32, align 4
  store ptr %0, ptr %8, align 8
  store ptr %1, ptr %9, align 8
  store i32 %2, ptr %10, align 4
  store ptr %3, ptr %11, align 8
  store ptr %4, ptr %12, align 8
  store ptr %5, ptr %13, align 8
  %16 = load i32, ptr %10, align 4
  %17 = icmp ne i32 %16, 0
  br i1 %17, label %18, label %37

18:                                               ; preds = %6
  call void @llvm.lifetime.start.p0(i64 8, ptr %14) #13
  %19 = load ptr, ptr %9, align 8
  %20 = load i32, ptr %10, align 4
  %21 = zext i32 %20 to i64
  %22 = call noalias ptr @g_strndup(ptr noundef %19, i64 noundef %21)
  store ptr %22, ptr %14, align 8
  %23 = load ptr, ptr %14, align 8
  %24 = call ptr @g_strchug(ptr noundef %23)
  %25 = call ptr @g_strchomp(ptr noundef %24)
  %26 = load ptr, ptr %14, align 8
  %27 = call ptr @find_dissector(ptr noundef %26)
  %28 = icmp ne ptr %27, null
  br i1 %28, label %29, label %32

29:                                               ; preds = %18
  %30 = load ptr, ptr %13, align 8
  store ptr null, ptr %30, align 8
  %31 = load ptr, ptr %14, align 8
  call void @g_free(ptr noundef %31)
  store i1 true, ptr %7, align 1
  store i32 1, ptr %15, align 4
  br label %36

32:                                               ; preds = %18
  %33 = call noalias ptr @g_strdup(ptr noundef @.str.22)
  %34 = load ptr, ptr %13, align 8
  store ptr %33, ptr %34, align 8
  %35 = load ptr, ptr %14, align 8
  call void @g_free(ptr noundef %35)
  store i1 false, ptr %7, align 1
  store i32 1, ptr %15, align 4
  br label %36

36:                                               ; preds = %32, %29
  call void @llvm.lifetime.end.p0(i64 8, ptr %14) #13
  br label %39

37:                                               ; preds = %6
  %38 = load ptr, ptr %13, align 8
  store ptr null, ptr %38, align 8
  store i1 true, ptr %7, align 1
  br label %39

39:                                               ; preds = %37, %36
  %40 = load i1, ptr %7, align 1
  ret i1 %40
}