; Function Attrs: null_pointer_is_valid sspstrong uwtable
define noundef zeroext i1 @uat_fld_chk_proto(ptr noundef readnone captures(none) %0, ptr noundef %1, i32 noundef %2, ptr noundef readnone captures(none) %3, ptr noundef readnone captures(none) %4, ptr noundef writeonly captures(none) initializes((0, 8)) %5) local_unnamed_addr #0 {
  %.not = icmp eq i32 %2, 0
  br i1 %.not, label %16, label %7

7:                                                ; preds = %6
  %8 = zext i32 %2 to i64
  %9 = tail call noalias ptr @g_strndup(ptr noundef %1, i64 noundef %8)
  %10 = tail call ptr @g_strchug(ptr noundef %9)
  %11 = tail call ptr @g_strchomp(ptr noundef %10)
  %12 = tail call ptr @find_dissector(ptr noundef %9)
  %.not11.not = icmp eq ptr %12, null
  br i1 %.not11.not, label %14, label %13

13:                                               ; preds = %7
  store ptr null, ptr %5, align 8
  tail call void @g_free(ptr noundef %9)
  br label %17

14:                                               ; preds = %7
  %15 = tail call noalias ptr @g_strdup(ptr noundef nonnull @.str.22)
  store ptr %15, ptr %5, align 8
  tail call void @g_free(ptr noundef %9)
  br label %17

16:                                               ; preds = %6
  store ptr null, ptr %5, align 8
  br label %17

17:                                               ; preds = %13, %14, %16
  %.1 = phi i1 [ true, %16 ], [ false, %14 ], [ true, %13 ]
  ret i1 %.1
}